target datalayout = "e-m:e-p270:32:32-p271:32:32-p272:64:64-i64:64-i128:128-f80:128-n8:16:32:64-S128"
target triple = "x86_64-unknown-linux-gnu"

%struct.UResourceBundle = type { ptr, ptr, ptr, ptr, ptr, [64 x i8], i32, i32, i8, i8, i32, i32, i32, i32 }

; Function Attrs: mustprogress uwtable
define internal void @_ZL18ures_appendResPathP15UResourceBundlePKciP10UErrorCode(ptr noundef %resB, ptr noundef %toAdd, i32 noundef %lenToAdd, ptr noundef %status) #1 {
entry:
  %resB.addr = alloca ptr, align 8
  %toAdd.addr = alloca ptr, align 8
  %lenToAdd.addr = alloca i32, align 4
  %status.addr = alloca ptr, align 8
  %resPathLenOrig = alloca i32, align 4
  %temp = alloca ptr, align 8
  store ptr %resB, ptr %resB.addr, align 8
  store ptr %toAdd, ptr %toAdd.addr, align 8
  store i32 %lenToAdd, ptr %lenToAdd.addr, align 4
  store ptr %status, ptr %status.addr, align 8
  %0 = load ptr, ptr %resB.addr, align 8
  %fResPathLen = getelementptr inbounds %struct.UResourceBundle, ptr %0, i32 0, i32 6
  %1 = load i32, ptr %fResPathLen, align 8
  store i32 %1, ptr %resPathLenOrig, align 4
  %2 = load ptr, ptr %resB.addr, align 8
  %fResPath = getelementptr inbounds %struct.UResourceBundle, ptr %2, i32 0, i32 4
  %3 = load ptr, ptr %fResPath, align 8
  %cmp = icmp eq ptr %3, null
  br i1 %cmp, label %if.then, label %if.end

if.then:                                          ; preds = %entry
  %4 = load ptr, ptr %resB.addr, align 8
  %fResBuf = getelementptr inbounds %struct.UResourceBundle, ptr %4, i32 0, i32 5
  %arraydecay = getelementptr inbounds [64 x i8], ptr %fResBuf, i64 0, i64 0
  %5 = load ptr, ptr %resB.addr, align 8
  %fResPath1 = getelementptr inbounds %struct.UResourceBundle, ptr %5, i32 0, i32 4
  store ptr %arraydecay, ptr %fResPath1, align 8
  %6 = load ptr, ptr %resB.addr, align 8
  %fResPath2 = getelementptr inbounds %struct.UResourceBundle, ptr %6, i32 0, i32 4
  %7 = load ptr, ptr %fResPath2, align 8
  store i8 0, ptr %7, align 1
  %8 = load ptr, ptr %resB.addr, align 8
  %fResPathLen3 = getelementptr inbounds %struct.UResourceBundle, ptr %8, i32 0, i32 6
  store i32 0, ptr %fResPathLen3, align 8
  br label %if.end

if.end:                                           ; preds = %if.then, %entry
  %9 = load i32, ptr %lenToAdd.addr, align 4
  %10 = load ptr, ptr %resB.addr, align 8
  %fResPathLen4 = getelementptr inbounds %struct.UResourceBundle, ptr %10, i32 0, i32 6
  %11 = load i32, ptr %fResPathLen4, align 8
  %add = add nsw i32 %11, %9
  store i32 %add, ptr %fResPathLen4, align 8
  %12 = load ptr, ptr %resB.addr, align 8
  %fResPathLen5 = getelementptr inbounds %struct.UResourceBundle, ptr %12, i32 0, i32 6
  %13 = load i32, ptr %fResPathLen5, align 8
  %add6 = add nsw i32 %13, 1
  %cmp7 = icmp sle i32 64, %add6
  br i1 %cmp7, label %if.then8, label %if.end36

if.then8:                                         ; preds = %if.end
  %14 = load ptr, ptr %resB.addr, align 8
  %fResPath9 = getelementptr inbounds %struct.UResourceBundle, ptr %14, i32 0, i32 4
  %15 = load ptr, ptr %fResPath9, align 8
  %16 = load ptr, ptr %resB.addr, align 8
  %fResBuf10 = getelementptr inbounds %struct.UResourceBundle, ptr %16, i32 0, i32 5
  %arraydecay11 = getelementptr inbounds [64 x i8], ptr %fResBuf10, i64 0, i64 0
  %cmp12 = icmp eq ptr %15, %arraydecay11
  br i1 %cmp12, label %if.then13, label %if.else

if.then13:                                        ; preds = %if.then8
  %17 = load ptr, ptr %resB.addr, align 8
  %fResPathLen14 = getelementptr inbounds %struct.UResourceBundle, ptr %17, i32 0, i32 6
  %18 = load i32, ptr %fResPathLen14, align 8
  %add15 = add nsw i32 %18, 1
  %conv = sext i32 %add15 to i64
  %mul = mul i64 %conv, 1
  %call = call noalias ptr @uprv_malloc_75(i64 noundef %mul) #11
  %19 = load ptr, ptr %resB.addr, align 8
  %fResPath16 = getelementptr inbounds %struct.UResourceBundle, ptr %19, i32 0, i32 4
  store ptr %call, ptr %fResPath16, align 8
  %20 = load ptr, ptr %resB.addr, align 8
  %fResPath17 = getelementptr inbounds %struct.UResourceBundle, ptr %20, i32 0, i32 4
  %21 = load ptr, ptr %fResPath17, align 8
  %cmp18 = icmp eq ptr %21, null
  br i1 %cmp18, label %if.then19, label %if.end20

if.then19:                                        ; preds = %if.then13
  %22 = load ptr, ptr %status.addr, align 8
  store i32 7, ptr %22, align 4
  br label %return

if.end20:                                         ; preds = %if.then13
  %23 = load ptr, ptr %resB.addr, align 8
  %fResPath21 = getelementptr inbounds %struct.UResourceBundle, ptr %23, i32 0, i32 4
  %24 = load ptr, ptr %fResPath21, align 8
  %25 = load ptr, ptr %resB.addr, align 8
  %fResBuf22 = getelementptr inbounds %struct.UResourceBundle, ptr %25, i32 0, i32 5
  %arraydecay23 = getelementptr inbounds [64 x i8], ptr %fResBuf22, i64 0, i64 0
  %call24 = call ptr @strcpy(ptr noundef %24, ptr noundef %arraydecay23) #10
  br label %if.end35

if.else:                                          ; preds = %if.then8
  %26 = load ptr, ptr %resB.addr, align 8
  %fResPath25 = getelementptr inbounds %struct.UResourceBundle, ptr %26, i32 0, i32 4
  %27 = load ptr, ptr %fResPath25, align 8
  %28 = load ptr, ptr %resB.addr, align 8
  %fResPathLen26 = getelementptr inbounds %struct.UResourceBundle, ptr %28, i32 0, i32 6
  %29 = load i32, ptr %fResPathLen26, align 8
  %add27 = add nsw i32 %29, 1
  %conv28 = sext i32 %add27 to i64
  %mul29 = mul i64 %conv28, 1
  %call30 = call ptr @uprv_realloc_75(ptr noundef %27, i64 noundef %mul29) #13
  store ptr %call30, ptr %temp, align 8
  %30 = load ptr, ptr %temp, align 8
  %cmp31 = icmp eq ptr %30, null
  br i1 %cmp31, label %if.then32, label %if.end33

if.then32:                                        ; preds = %if.else
  %31 = load ptr, ptr %status.addr, align 8
  store i32 7, ptr %31, align 4
  br label %return

if.end33:                                         ; preds = %if.else
  %32 = load ptr, ptr %temp, align 8
  %33 = load ptr, ptr %resB.addr, align 8
  %fResPath34 = getelementptr inbounds %struct.UResourceBundle, ptr %33, i32 0, i32 4
  store ptr %32, ptr %fResPath34, align 8
  br label %if.end35

if.end35:                                         ; preds = %if.end33, %if.end20
  br label %if.end36

if.end36:                                         ; preds = %if.end35, %if.end
  %34 = load ptr, ptr %resB.addr, align 8
  %fResPath37 = getelementptr inbounds %struct.UResourceBundle, ptr %34, i32 0, i32 4
  %35 = load ptr, ptr %fResPath37, align 8
  %36 = load i32, ptr %resPathLenOrig, align 4
  %idx.ext = sext i32 %36 to i64
  %add.ptr = getelementptr inbounds i8, ptr %35, i64 %idx.ext
  %37 = load ptr, ptr %toAdd.addr, align 8
  %call38 = call ptr @strcpy(ptr noundef %add.ptr, ptr noundef %37) #10
  br label %return

return:                                           ; preds = %if.end36, %if.then32, %if.then19
  ret void
}