; Function Attrs: mustprogress uwtable
define internal fastcc void @_ZL18ures_appendResPathP15UResourceBundlePKciP10UErrorCode(ptr noundef %resB, ptr nocapture noundef readonly %toAdd, i32 noundef %lenToAdd, ptr nocapture noundef writeonly %status) unnamed_addr #1 {
entry:
  %fResPathLen = getelementptr inbounds i8, ptr %resB, i64 104
  %0 = load i32, ptr %fResPathLen, align 8
  %fResPath = getelementptr inbounds i8, ptr %resB, i64 32
  %1 = load ptr, ptr %fResPath, align 8
  %cmp = icmp eq ptr %1, null
  br i1 %cmp, label %if.then, label %if.end

if.then:                                          ; preds = %entry
  %fResBuf = getelementptr inbounds i8, ptr %resB, i64 40
  store ptr %fResBuf, ptr %fResPath, align 8
  store i8 0, ptr %fResBuf, align 1
  br label %if.end

if.end:                                           ; preds = %if.then, %entry
  %2 = phi ptr [ %fResBuf, %if.then ], [ %1, %entry ]
  %3 = phi i32 [ 0, %if.then ], [ %0, %entry ]
  %add = add nsw i32 %3, %lenToAdd
  store i32 %add, ptr %fResPathLen, align 8
  %cmp7 = icmp sgt i32 %add, 62
  br i1 %cmp7, label %if.then8, label %if.end36

if.then8:                                         ; preds = %if.end
  %add6 = add nuw nsw i32 %add, 1
  %fResBuf10 = getelementptr inbounds i8, ptr %resB, i64 40
  %cmp12 = icmp eq ptr %2, %fResBuf10
  %conv = zext nneg i32 %add6 to i64
  br i1 %cmp12, label %if.then13, label %if.else

if.then13:                                        ; preds = %if.then8
  %call = tail call noalias ptr @uprv_malloc_75(i64 noundef %conv) #21
  store ptr %call, ptr %fResPath, align 8
  %cmp18 = icmp eq ptr %call, null
  br i1 %cmp18, label %if.then19, label %if.end20

if.then19:                                        ; preds = %if.then13
  store i32 7, ptr %status, align 4
  br label %return

if.end20:                                         ; preds = %if.then13
  %call24 = tail call ptr @strcpy(ptr noundef nonnull dereferenceable(1) %call, ptr noundef nonnull dereferenceable(1) %fResBuf10) #20
  br label %if.end36

if.else:                                          ; preds = %if.then8
  %call30 = tail call ptr @uprv_realloc_75(ptr noundef nonnull %2, i64 noundef %conv) #23
  %cmp31 = icmp eq ptr %call30, null
  br i1 %cmp31, label %if.then32, label %if.end33

if.then32:                                        ; preds = %if.else
  store i32 7, ptr %status, align 4
  br label %return

if.end33:                                         ; preds = %if.else
  store ptr %call30, ptr %fResPath, align 8
  br label %if.end36

if.end36:                                         ; preds = %if.end20, %if.end33, %if.end
  %4 = phi ptr [ %call, %if.end20 ], [ %call30, %if.end33 ], [ %2, %if.end ]
  %idx.ext = sext i32 %0 to i64
  %add.ptr = getelementptr inbounds i8, ptr %4, i64 %idx.ext
  %call38 = tail call ptr @strcpy(ptr noundef nonnull dereferenceable(1) %add.ptr, ptr noundef nonnull dereferenceable(1) %toAdd) #20
  br label %return

return:                                           ; preds = %if.end36, %if.then32, %if.then19
  ret void
}